	.file	"hello.c"
	.text
.Ltext0:
	.section	.rodata
	.align 8
.LC0:
	.string	"this_is_pwnable.kr_flag_file_please_read_this_file.sorry_the_file_name_is_very_loooooooooooooooooooooooooooooooooooooooooooooooooooooooooooooooooooooooooooo0000000000000000000000000ooooooooooooooooooooooo000000000000o0o0o0o0o0o0ong"
	.text
	.globl	func
	.type	func, @function
func:
.LFB0:
	.file 1 "hello.c"
	.loc 1 5 0
	.cfi_startproc
	pushq	%rbp
	.cfi_def_cfa_offset 16
	.cfi_offset 6, -16
	movq	%rsp, %rbp
	.cfi_def_cfa_register 6
	subq	$112, %rsp
	.loc 1 6 0
	movl	$0, %esi
	leaq	.LC0(%rip), %rdi
	movl	$0, %eax
	call	open@PLT
	movl	%eax, -4(%rbp)
	.loc 1 9 0
	leaq	-112(%rbp), %rcx
	movl	-4(%rbp), %eax
	movl	$99, %edx
	movq	%rcx, %rsi
	movl	%eax, %edi
	call	read@PLT
	movl	%eax, -8(%rbp)
	.loc 1 10 0
	leaq	-112(%rbp), %rax
	movq	%rax, %rdi
	call	puts@PLT
	.loc 1 11 0
	nop
	leave
	.cfi_def_cfa 7, 8
	ret
	.cfi_endproc
.LFE0:
	.size	func, .-func
	.section	.rodata
.LC1:
	.string	"Hello world!"
	.text
	.globl	main
	.type	main, @function
main:
.LFB1:
	.loc 1 13 0
	.cfi_startproc
	pushq	%rbp
	.cfi_def_cfa_offset 16
	.cfi_offset 6, -16
	movq	%rsp, %rbp
	.cfi_def_cfa_register 6
	.loc 1 14 0
	leaq	.LC1(%rip), %rdi
	call	puts@PLT
	.loc 1 15 0
	movl	$0, %eax
	call	func
	.loc 1 16 0
	movl	$0, %eax
	.loc 1 17 0
	popq	%rbp
	.cfi_def_cfa 7, 8
	ret
	.cfi_endproc
.LFE1:
	.size	main, .-main
.Letext0:
	.file 2 "/usr/lib/gcc/x86_64-linux-gnu/6/include/stddef.h"
	.file 3 "/usr/include/x86_64-linux-gnu/bits/types.h"
	.file 4 "/usr/include/libio.h"
	.file 5 "/usr/include/stdio.h"
	.file 6 "/usr/include/x86_64-linux-gnu/bits/sys_errlist.h"
	.file 7 "/usr/include/unistd.h"
	.file 8 "/usr/include/getopt.h"
	.section	.note.GNU-stack,"",@progbits
